target datalayout = "e-m:e-p270:32:32-p271:32:32-p272:64:64-i64:64-i128:128-f80:128-n8:16:32:64-S128"
target triple = "x86_64-pc-linux-gnu"

%struct.Vec_Int_t_ = type { i32, i32, ptr }
%struct.Abc_ManRst_t_ = type { ptr, i32, i32, i32, i32, ptr, ptr, ptr, ptr, ptr, ptr, ptr, ptr, ptr, ptr, ptr, i32, i32, i32, i32, i32, i32, i32, i32, i32, i32, i32, i32, i32 }
%struct.DdManager = type { %struct.DdNode, ptr, ptr, ptr, ptr, ptr, ptr, ptr, i32, i32, double, double, double, i32, i32, i32, i32, i32, i32, ptr, ptr, %struct.DdSubtable, i32, i32, i32, i32, i32, i32, i32, double, i32, i32, i32, ptr, i64, double, i32, ptr, ptr, ptr, ptr, ptr, ptr, ptr, i32, ptr, ptr, ptr, ptr, ptr, ptr, i32, i32, i32, double, i32, i32, i32, i32, double, double, i32, i32, i32, i32, i32, i32, i32, i32, i32, ptr, ptr, i32, i32, i32, i32, i32, i32, ptr, ptr, ptr, ptr, ptr, ptr, ptr, ptr, i32, i64, i64, i64, i32, i64, i64, double, double, double, double, double, double, i32, ptr, ptr, i64 }
%struct.DdNode = type { i32, i32, ptr, %union.anon.2, i64 }
%union.anon.2 = type { %struct.DdChildren }
%struct.DdChildren = type { ptr, ptr }
%struct.DdSubtable = type { ptr, i32, i32, i32, i32, i32, i32, i32, i32, i32, i32, i32 }
%struct.Vec_Ptr_t_ = type { i32, i32, ptr }

; Function Attrs: nounwind uwtable
define internal void @Vec_IntGrow(ptr noundef %0, i32 noundef %1) #0 {
  %3 = alloca ptr, align 8
  %4 = alloca i32, align 4
  store ptr %0, ptr %3, align 8
  store i32 %1, ptr %4, align 4
  %5 = load ptr, ptr %3, align 8
  %6 = getelementptr inbounds %struct.Vec_Int_t_, ptr %5, i32 0, i32 0
  %7 = load i32, ptr %6, align 8
  %8 = load i32, ptr %4, align 4
  %9 = icmp sge i32 %7, %8
  br i1 %9, label %10, label %11

10:                                               ; preds = %2
  br label %36

11:                                               ; preds = %2
  %12 = load ptr, ptr %3, align 8
  %13 = getelementptr inbounds %struct.Vec_Int_t_, ptr %12, i32 0, i32 2
  %14 = load ptr, ptr %13, align 8
  %15 = icmp ne ptr %14, null
  br i1 %15, label %16, label %24

16:                                               ; preds = %11
  %17 = load ptr, ptr %3, align 8
  %18 = getelementptr inbounds %struct.Vec_Int_t_, ptr %17, i32 0, i32 2
  %19 = load ptr, ptr %18, align 8
  %20 = load i32, ptr %4, align 4
  %21 = sext i32 %20 to i64
  %22 = mul i64 4, %21
  %23 = call ptr @realloc(ptr noundef %19, i64 noundef %22) #11
  br label %29

24:                                               ; preds = %11
  %25 = load i32, ptr %4, align 4
  %26 = sext i32 %25 to i64
  %27 = mul i64 4, %26
  %28 = call noalias ptr @malloc(i64 noundef %27) #9
  br label %29

29:                                               ; preds = %24, %16
  %30 = phi ptr [ %23, %16 ], [ %28, %24 ]
  %31 = load ptr, ptr %3, align 8
  %32 = getelementptr inbounds %struct.Vec_Int_t_, ptr %31, i32 0, i32 2
  store ptr %30, ptr %32, align 8
  %33 = load i32, ptr %4, align 4
  %34 = load ptr, ptr %3, align 8
  %35 = getelementptr inbounds %struct.Vec_Int_t_, ptr %34, i32 0, i32 0
  store i32 %33, ptr %35, align 8
  br label %36

36:                                               ; preds = %29, %10
  ret void
}

; Function Attrs: nounwind uwtable
define internal void @Vec_IntPush(ptr noundef %0, i32 noundef %1) #0 {
  %3 = alloca ptr, align 8
  %4 = alloca i32, align 4
  store ptr %0, ptr %3, align 8
  store i32 %1, ptr %4, align 4
  %5 = load ptr, ptr %3, align 8
  %6 = getelementptr inbounds %struct.Vec_Int_t_, ptr %5, i32 0, i32 1
  %7 = load i32, ptr %6, align 4
  %8 = load ptr, ptr %3, align 8
  %9 = getelementptr inbounds %struct.Vec_Int_t_, ptr %8, i32 0, i32 0
  %10 = load i32, ptr %9, align 8
  %11 = icmp eq i32 %7, %10
  br i1 %11, label %12, label %26

12:                                               ; preds = %2
  %13 = load ptr, ptr %3, align 8
  %14 = getelementptr inbounds %struct.Vec_Int_t_, ptr %13, i32 0, i32 0
  %15 = load i32, ptr %14, align 8
  %16 = icmp slt i32 %15, 16
  br i1 %16, label %17, label %19

17:                                               ; preds = %12
  %18 = load ptr, ptr %3, align 8
  call void @Vec_IntGrow(ptr noundef %18, i32 noundef 16)
  br label %25

19:                                               ; preds = %12
  %20 = load ptr, ptr %3, align 8
  %21 = load ptr, ptr %3, align 8
  %22 = getelementptr inbounds %struct.Vec_Int_t_, ptr %21, i32 0, i32 0
  %23 = load i32, ptr %22, align 8
  %24 = mul nsw i32 2, %23
  call void @Vec_IntGrow(ptr noundef %20, i32 noundef %24)
  br label %25

25:                                               ; preds = %19, %17
  br label %26

26:                                               ; preds = %25, %2
  %27 = load i32, ptr %4, align 4
  %28 = load ptr, ptr %3, align 8
  %29 = getelementptr inbounds %struct.Vec_Int_t_, ptr %28, i32 0, i32 2
  %30 = load ptr, ptr %29, align 8
  %31 = load ptr, ptr %3, align 8
  %32 = getelementptr inbounds %struct.Vec_Int_t_, ptr %31, i32 0, i32 1
  %33 = load i32, ptr %32, align 4
  %34 = add nsw i32 %33, 1
  store i32 %34, ptr %32, align 4
  %35 = sext i32 %33 to i64
  %36 = getelementptr inbounds i32, ptr %30, i64 %35
  store i32 %27, ptr %36, align 4
  ret void
}

; Function Attrs: nounwind uwtable
define internal ptr @Vec_IntAlloc(i32 noundef %0) #0 {
  %2 = alloca i32, align 4
  %3 = alloca ptr, align 8
  store i32 %0, ptr %2, align 4
  %4 = call noalias ptr @malloc(i64 noundef 16) #9
  store ptr %4, ptr %3, align 8
  %5 = load i32, ptr %2, align 4
  %6 = icmp sgt i32 %5, 0
  br i1 %6, label %7, label %11

7:                                                ; preds = %1
  %8 = load i32, ptr %2, align 4
  %9 = icmp slt i32 %8, 16
  br i1 %9, label %10, label %11

10:                                               ; preds = %7
  store i32 16, ptr %2, align 4
  br label %11

11:                                               ; preds = %10, %7, %1
  %12 = load ptr, ptr %3, align 8
  %13 = getelementptr inbounds %struct.Vec_Int_t_, ptr %12, i32 0, i32 1
  store i32 0, ptr %13, align 4
  %14 = load i32, ptr %2, align 4
  %15 = load ptr, ptr %3, align 8
  %16 = getelementptr inbounds %struct.Vec_Int_t_, ptr %15, i32 0, i32 0
  store i32 %14, ptr %16, align 8
  %17 = load ptr, ptr %3, align 8
  %18 = getelementptr inbounds %struct.Vec_Int_t_, ptr %17, i32 0, i32 0
  %19 = load i32, ptr %18, align 8
  %20 = icmp ne i32 %19, 0
  br i1 %20, label %21, label %28

21:                                               ; preds = %11
  %22 = load ptr, ptr %3, align 8
  %23 = getelementptr inbounds %struct.Vec_Int_t_, ptr %22, i32 0, i32 0
  %24 = load i32, ptr %23, align 8
  %25 = sext i32 %24 to i64
  %26 = mul i64 4, %25
  %27 = call noalias ptr @malloc(i64 noundef %26) #9
  br label %29

28:                                               ; preds = %11
  br label %29

29:                                               ; preds = %28, %21
  %30 = phi ptr [ %27, %21 ], [ null, %28 ]
  %31 = load ptr, ptr %3, align 8
  %32 = getelementptr inbounds %struct.Vec_Int_t_, ptr %31, i32 0, i32 2
  store ptr %30, ptr %32, align 8
  %33 = load ptr, ptr %3, align 8
  ret ptr %33
}

; Function Attrs: nounwind uwtable
define internal ptr @Vec_PtrAlloc(i32 noundef %0) #0 {
  %2 = alloca i32, align 4
  %3 = alloca ptr, align 8
  store i32 %0, ptr %2, align 4
  %4 = call noalias ptr @malloc(i64 noundef 16) #9
  store ptr %4, ptr %3, align 8
  %5 = load i32, ptr %2, align 4
  %6 = icmp sgt i32 %5, 0
  br i1 %6, label %7, label %11

7:                                                ; preds = %1
  %8 = load i32, ptr %2, align 4
  %9 = icmp slt i32 %8, 8
  br i1 %9, label %10, label %11

10:                                               ; preds = %7
  store i32 8, ptr %2, align 4
  br label %11

11:                                               ; preds = %10, %7, %1
  %12 = load ptr, ptr %3, align 8
  %13 = getelementptr inbounds %struct.Vec_Ptr_t_, ptr %12, i32 0, i32 1
  store i32 0, ptr %13, align 4
  %14 = load i32, ptr %2, align 4
  %15 = load ptr, ptr %3, align 8
  %16 = getelementptr inbounds %struct.Vec_Ptr_t_, ptr %15, i32 0, i32 0
  store i32 %14, ptr %16, align 8
  %17 = load ptr, ptr %3, align 8
  %18 = getelementptr inbounds %struct.Vec_Ptr_t_, ptr %17, i32 0, i32 0
  %19 = load i32, ptr %18, align 8
  %20 = icmp ne i32 %19, 0
  br i1 %20, label %21, label %28

21:                                               ; preds = %11
  %22 = load ptr, ptr %3, align 8
  %23 = getelementptr inbounds %struct.Vec_Ptr_t_, ptr %22, i32 0, i32 0
  %24 = load i32, ptr %23, align 8
  %25 = sext i32 %24 to i64
  %26 = mul i64 8, %25
  %27 = call noalias ptr @malloc(i64 noundef %26) #9
  br label %29

28:                                               ; preds = %11
  br label %29

29:                                               ; preds = %28, %21
  %30 = phi ptr [ %27, %21 ], [ null, %28 ]
  %31 = load ptr, ptr %3, align 8
  %32 = getelementptr inbounds %struct.Vec_Ptr_t_, ptr %31, i32 0, i32 2
  store ptr %30, ptr %32, align 8
  %33 = load ptr, ptr %3, align 8
  ret ptr %33
}

; Function Attrs: nounwind uwtable
define internal ptr @Abc_NtkManRstStart(i32 noundef %0, i32 noundef %1, i32 noundef %2, i32 noundef %3) #0 {
  %5 = alloca i32, align 4
  %6 = alloca i32, align 4
  %7 = alloca i32, align 4
  %8 = alloca i32, align 4
  %9 = alloca ptr, align 8
  %10 = alloca i32, align 4
  store i32 %0, ptr %5, align 4
  store i32 %1, ptr %6, align 4
  store i32 %2, ptr %7, align 4
  store i32 %3, ptr %8, align 4
  %11 = call noalias ptr @malloc(i64 noundef 168) #9
  store ptr %11, ptr %9, align 8
  %12 = load ptr, ptr %9, align 8
  call void @llvm.memset.p0.i64(ptr align 8 %12, i8 0, i64 168, i1 false)
  %13 = load i32, ptr %5, align 4
  %14 = load ptr, ptr %9, align 8
  %15 = getelementptr inbounds %struct.Abc_ManRst_t_, ptr %14, i32 0, i32 1
  store i32 %13, ptr %15, align 8
  %16 = load i32, ptr %6, align 4
  %17 = load ptr, ptr %9, align 8
  %18 = getelementptr inbounds %struct.Abc_ManRst_t_, ptr %17, i32 0, i32 2
  store i32 %16, ptr %18, align 4
  %19 = load i32, ptr %7, align 4
  %20 = load ptr, ptr %9, align 8
  %21 = getelementptr inbounds %struct.Abc_ManRst_t_, ptr %20, i32 0, i32 3
  store i32 %19, ptr %21, align 8
  %22 = load i32, ptr %8, align 4
  %23 = load ptr, ptr %9, align 8
  %24 = getelementptr inbounds %struct.Abc_ManRst_t_, ptr %23, i32 0, i32 4
  store i32 %22, ptr %24, align 4
  %25 = load ptr, ptr %9, align 8
  %26 = getelementptr inbounds %struct.Abc_ManRst_t_, ptr %25, i32 0, i32 1
  %27 = load i32, ptr %26, align 8
  %28 = call ptr @Cudd_Init(i32 noundef %27, i32 noundef 0, i32 noundef 256, i32 noundef 262144, i64 noundef 0)
  %29 = load ptr, ptr %9, align 8
  %30 = getelementptr inbounds %struct.Abc_ManRst_t_, ptr %29, i32 0, i32 5
  store ptr %28, ptr %30, align 8
  %31 = load ptr, ptr %9, align 8
  %32 = getelementptr inbounds %struct.Abc_ManRst_t_, ptr %31, i32 0, i32 5
  %33 = load ptr, ptr %32, align 8
  %34 = call i32 @Cudd_zddVarsFromBddVars(ptr noundef %33, i32 noundef 2)
  %35 = load ptr, ptr %9, align 8
  %36 = getelementptr inbounds %struct.Abc_ManRst_t_, ptr %35, i32 0, i32 5
  %37 = load ptr, ptr %36, align 8
  %38 = load ptr, ptr %9, align 8
  %39 = getelementptr inbounds %struct.Abc_ManRst_t_, ptr %38, i32 0, i32 5
  %40 = load ptr, ptr %39, align 8
  %41 = getelementptr inbounds %struct.DdManager, ptr %40, i32 0, i32 15
  %42 = load i32, ptr %41, align 8
  %43 = call ptr @Dsd_ManagerStart(ptr noundef %37, i32 noundef %42, i32 noundef 0)
  %44 = load ptr, ptr %9, align 8
  %45 = getelementptr inbounds %struct.Abc_ManRst_t_, ptr %44, i32 0, i32 6
  store ptr %43, ptr %45, align 8
  %46 = call ptr @Vec_PtrAlloc(i32 noundef 100)
  %47 = load ptr, ptr %9, align 8
  %48 = getelementptr inbounds %struct.Abc_ManRst_t_, ptr %47, i32 0, i32 7
  store ptr %46, ptr %48, align 8
  %49 = call ptr @Vec_PtrAlloc(i32 noundef 100)
  %50 = load ptr, ptr %9, align 8
  %51 = getelementptr inbounds %struct.Abc_ManRst_t_, ptr %50, i32 0, i32 8
  store ptr %49, ptr %51, align 8
  %52 = call ptr @Vec_PtrAlloc(i32 noundef 100)
  %53 = load ptr, ptr %9, align 8
  %54 = getelementptr inbounds %struct.Abc_ManRst_t_, ptr %53, i32 0, i32 9
  store ptr %52, ptr %54, align 8
  %55 = call ptr @Vec_PtrAlloc(i32 noundef 100)
  %56 = load ptr, ptr %9, align 8
  %57 = getelementptr inbounds %struct.Abc_ManRst_t_, ptr %56, i32 0, i32 10
  store ptr %55, ptr %57, align 8
  %58 = call ptr @Vec_IntAlloc(i32 noundef 100)
  %59 = load ptr, ptr %9, align 8
  %60 = getelementptr inbounds %struct.Abc_ManRst_t_, ptr %59, i32 0, i32 11
  store ptr %58, ptr %60, align 8
  %61 = call ptr @Vec_IntAlloc(i32 noundef 100)
  %62 = load ptr, ptr %9, align 8
  %63 = getelementptr inbounds %struct.Abc_ManRst_t_, ptr %62, i32 0, i32 13
  store ptr %61, ptr %63, align 8
  %64 = call ptr @Vec_IntAlloc(i32 noundef 100)
  %65 = load ptr, ptr %9, align 8
  %66 = getelementptr inbounds %struct.Abc_ManRst_t_, ptr %65, i32 0, i32 14
  store ptr %64, ptr %66, align 8
  %67 = call ptr @Vec_IntAlloc(i32 noundef 100)
  %68 = load ptr, ptr %9, align 8
  %69 = getelementptr inbounds %struct.Abc_ManRst_t_, ptr %68, i32 0, i32 15
  store ptr %67, ptr %69, align 8
  %70 = call ptr @Vec_IntAlloc(i32 noundef 20)
  %71 = load ptr, ptr %9, align 8
  %72 = getelementptr inbounds %struct.Abc_ManRst_t_, ptr %71, i32 0, i32 12
  store ptr %70, ptr %72, align 8
  store i32 0, ptr %10, align 4
  br label %73

73:                                               ; preds = %87, %4
  %74 = load i32, ptr %10, align 4
  %75 = icmp slt i32 %74, 20
  br i1 %75, label %76, label %90

76:                                               ; preds = %73
  %77 = load ptr, ptr %9, align 8
  %78 = getelementptr inbounds %struct.Abc_ManRst_t_, ptr %77, i32 0, i32 12
  %79 = load ptr, ptr %78, align 8
  %80 = call i32 @rand() #10
  %81 = shl i32 %80, 24
  %82 = call i32 @rand() #10
  %83 = shl i32 %82, 12
  %84 = xor i32 %81, %83
  %85 = call i32 @rand() #10
  %86 = xor i32 %84, %85
  call void @Vec_IntPush(ptr noundef %79, i32 noundef %86)
  br label %87

87:                                               ; preds = %76
  %88 = load i32, ptr %10, align 4
  %89 = add nsw i32 %88, 1
  store i32 %89, ptr %10, align 4
  br label %73, !llvm.loop !6

90:                                               ; preds = %73
  %91 = load ptr, ptr %9, align 8
  ret ptr %91
}