; Function Attrs: nounwind uwtable
define internal fastcc noalias noundef ptr @Abc_NtkManRstStart(i32 noundef %0, i32 noundef %1, i32 noundef %2, i32 noundef %3) unnamed_addr #0 {
  %calloc = tail call dereferenceable_or_null(168) ptr @calloc(i64 1, i64 168)
  %5 = getelementptr inbounds nuw i8, ptr %calloc, i64 8
  store i32 %0, ptr %5, align 8
  %6 = getelementptr inbounds nuw i8, ptr %calloc, i64 12
  store i32 %1, ptr %6, align 4
  %7 = getelementptr inbounds nuw i8, ptr %calloc, i64 16
  store i32 %2, ptr %7, align 8
  %8 = getelementptr inbounds nuw i8, ptr %calloc, i64 20
  store i32 %3, ptr %8, align 4
  %9 = tail call ptr @Cudd_Init(i32 noundef %0, i32 noundef 0, i32 noundef 256, i32 noundef 262144, i64 noundef 0) #19
  %10 = getelementptr inbounds nuw i8, ptr %calloc, i64 24
  store ptr %9, ptr %10, align 8
  %11 = tail call i32 @Cudd_zddVarsFromBddVars(ptr noundef %9, i32 noundef 2) #19
  %12 = getelementptr inbounds nuw i8, ptr %9, i64 136
  %13 = load i32, ptr %12, align 8
  %14 = tail call ptr @Dsd_ManagerStart(ptr noundef %9, i32 noundef %13, i32 noundef 0) #19
  %15 = getelementptr inbounds nuw i8, ptr %calloc, i64 32
  store ptr %14, ptr %15, align 8
  %16 = tail call noalias dereferenceable_or_null(16) ptr @malloc(i64 noundef 16) #21
  %17 = getelementptr inbounds nuw i8, ptr %16, i64 4
  store i32 0, ptr %17, align 4
  store i32 100, ptr %16, align 8
  %18 = tail call noalias dereferenceable_or_null(800) ptr @malloc(i64 noundef 800) #21
  %19 = getelementptr inbounds nuw i8, ptr %16, i64 8
  store ptr %18, ptr %19, align 8
  %20 = getelementptr inbounds nuw i8, ptr %calloc, i64 40
  store ptr %16, ptr %20, align 8
  %21 = tail call noalias dereferenceable_or_null(16) ptr @malloc(i64 noundef 16) #21
  %22 = getelementptr inbounds nuw i8, ptr %21, i64 4
  store i32 0, ptr %22, align 4
  store i32 100, ptr %21, align 8
  %23 = tail call noalias dereferenceable_or_null(800) ptr @malloc(i64 noundef 800) #21
  %24 = getelementptr inbounds nuw i8, ptr %21, i64 8
  store ptr %23, ptr %24, align 8
  %25 = getelementptr inbounds nuw i8, ptr %calloc, i64 48
  store ptr %21, ptr %25, align 8
  %26 = tail call noalias dereferenceable_or_null(16) ptr @malloc(i64 noundef 16) #21
  %27 = getelementptr inbounds nuw i8, ptr %26, i64 4
  store i32 0, ptr %27, align 4
  store i32 100, ptr %26, align 8
  %28 = tail call noalias dereferenceable_or_null(800) ptr @malloc(i64 noundef 800) #21
  %29 = getelementptr inbounds nuw i8, ptr %26, i64 8
  store ptr %28, ptr %29, align 8
  %30 = getelementptr inbounds nuw i8, ptr %calloc, i64 56
  store ptr %26, ptr %30, align 8
  %31 = tail call noalias dereferenceable_or_null(16) ptr @malloc(i64 noundef 16) #21
  %32 = getelementptr inbounds nuw i8, ptr %31, i64 4
  store i32 0, ptr %32, align 4
  store i32 100, ptr %31, align 8
  %33 = tail call noalias dereferenceable_or_null(800) ptr @malloc(i64 noundef 800) #21
  %34 = getelementptr inbounds nuw i8, ptr %31, i64 8
  store ptr %33, ptr %34, align 8
  %35 = getelementptr inbounds nuw i8, ptr %calloc, i64 64
  store ptr %31, ptr %35, align 8
  %36 = tail call noalias dereferenceable_or_null(16) ptr @malloc(i64 noundef 16) #21
  %37 = getelementptr inbounds nuw i8, ptr %36, i64 4
  store i32 0, ptr %37, align 4
  store i32 100, ptr %36, align 8
  %38 = tail call noalias dereferenceable_or_null(400) ptr @malloc(i64 noundef 400) #21
  %39 = getelementptr inbounds nuw i8, ptr %36, i64 8
  store ptr %38, ptr %39, align 8
  %40 = getelementptr inbounds nuw i8, ptr %calloc, i64 72
  store ptr %36, ptr %40, align 8
  %41 = tail call noalias dereferenceable_or_null(16) ptr @malloc(i64 noundef 16) #21
  %42 = getelementptr inbounds nuw i8, ptr %41, i64 4
  store i32 0, ptr %42, align 4
  store i32 100, ptr %41, align 8
  %43 = tail call noalias dereferenceable_or_null(400) ptr @malloc(i64 noundef 400) #21
  %44 = getelementptr inbounds nuw i8, ptr %41, i64 8
  store ptr %43, ptr %44, align 8
  %45 = getelementptr inbounds nuw i8, ptr %calloc, i64 88
  store ptr %41, ptr %45, align 8
  %46 = tail call noalias dereferenceable_or_null(16) ptr @malloc(i64 noundef 16) #21
  %47 = getelementptr inbounds nuw i8, ptr %46, i64 4
  store i32 0, ptr %47, align 4
  store i32 100, ptr %46, align 8
  %48 = tail call noalias dereferenceable_or_null(400) ptr @malloc(i64 noundef 400) #21
  %49 = getelementptr inbounds nuw i8, ptr %46, i64 8
  store ptr %48, ptr %49, align 8
  %50 = getelementptr inbounds nuw i8, ptr %calloc, i64 96
  store ptr %46, ptr %50, align 8
  %51 = tail call noalias dereferenceable_or_null(16) ptr @malloc(i64 noundef 16) #21
  %52 = getelementptr inbounds nuw i8, ptr %51, i64 4
  store i32 0, ptr %52, align 4
  store i32 100, ptr %51, align 8
  %53 = tail call noalias dereferenceable_or_null(400) ptr @malloc(i64 noundef 400) #21
  %54 = getelementptr inbounds nuw i8, ptr %51, i64 8
  store ptr %53, ptr %54, align 8
  %55 = getelementptr inbounds nuw i8, ptr %calloc, i64 104
  store ptr %51, ptr %55, align 8
  %56 = tail call noalias dereferenceable_or_null(16) ptr @malloc(i64 noundef 16) #21
  %57 = getelementptr inbounds nuw i8, ptr %56, i64 4
  store i32 0, ptr %57, align 4
  store i32 20, ptr %56, align 8
  %58 = tail call noalias dereferenceable_or_null(80) ptr @malloc(i64 noundef 80) #21
  %59 = getelementptr inbounds nuw i8, ptr %56, i64 8
  store ptr %58, ptr %59, align 8
  %60 = getelementptr inbounds nuw i8, ptr %calloc, i64 80
  store ptr %56, ptr %60, align 8
  br label %61

61:                                               ; preds = %4, %Vec_IntPush.exit
  %.027 = phi i32 [ 0, %4 ], [ %101, %Vec_IntPush.exit ]
  %62 = load ptr, ptr %60, align 8
  %63 = tail call i32 @rand() #19
  %64 = shl i32 %63, 24
  %65 = tail call i32 @rand() #19
  %66 = shl i32 %65, 12
  %67 = xor i32 %66, %64
  %68 = tail call i32 @rand() #19
  %69 = xor i32 %67, %68
  %70 = getelementptr inbounds nuw i8, ptr %62, i64 4
  %71 = load i32, ptr %70, align 4
  %72 = load i32, ptr %62, align 8
  %73 = icmp eq i32 %71, %72
  br i1 %73, label %74, label %.Vec_IntGrow.exit10_crit_edge.i

.Vec_IntGrow.exit10_crit_edge.i:                  ; preds = %61
  %.phi.trans.insert.i = getelementptr inbounds nuw i8, ptr %62, i64 8
  %.pre.i = load ptr, ptr %.phi.trans.insert.i, align 8
  br label %Vec_IntPush.exit

74:                                               ; preds = %61
  %75 = icmp slt i32 %71, 16
  br i1 %75, label %76, label %84

76:                                               ; preds = %74
  %77 = getelementptr inbounds nuw i8, ptr %62, i64 8
  %78 = load ptr, ptr %77, align 8
  %.not9.i.i = icmp eq ptr %78, null
  br i1 %.not9.i.i, label %81, label %79

79:                                               ; preds = %76
  %80 = tail call dereferenceable_or_null(64) ptr @realloc(ptr noundef nonnull %78, i64 noundef 64) #20
  br label %Vec_IntGrow.exit.i

81:                                               ; preds = %76
  %82 = tail call noalias dereferenceable_or_null(64) ptr @malloc(i64 noundef 64) #21
  br label %Vec_IntGrow.exit.i

Vec_IntGrow.exit.i:                               ; preds = %81, %79
  %83 = phi ptr [ %80, %79 ], [ %82, %81 ]
  store ptr %83, ptr %77, align 8
  store i32 16, ptr %62, align 8
  br label %Vec_IntPush.exit

84:                                               ; preds = %74
  %85 = shl nuw nsw i32 %71, 1
  %86 = getelementptr inbounds nuw i8, ptr %62, i64 8
  %87 = load ptr, ptr %86, align 8
  %.not9.i9.i = icmp eq ptr %87, null
  %88 = zext nneg i32 %85 to i64
  %89 = shl nuw nsw i64 %88, 2
  br i1 %.not9.i9.i, label %92, label %90

90:                                               ; preds = %84
  %91 = tail call ptr @realloc(ptr noundef nonnull %87, i64 noundef %89) #20
  br label %94

92:                                               ; preds = %84
  %93 = tail call noalias ptr @malloc(i64 noundef %89) #21
  br label %94

94:                                               ; preds = %92, %90
  %95 = phi ptr [ %91, %90 ], [ %93, %92 ]
  store ptr %95, ptr %86, align 8
  store i32 %85, ptr %62, align 8
  br label %Vec_IntPush.exit

Vec_IntPush.exit:                                 ; preds = %.Vec_IntGrow.exit10_crit_edge.i, %Vec_IntGrow.exit.i, %94
  %96 = phi ptr [ %.pre.i, %.Vec_IntGrow.exit10_crit_edge.i ], [ %95, %94 ], [ %83, %Vec_IntGrow.exit.i ]
  %97 = load i32, ptr %70, align 4
  %98 = add nsw i32 %97, 1
  store i32 %98, ptr %70, align 4
  %99 = sext i32 %97 to i64
  %100 = getelementptr inbounds i32, ptr %96, i64 %99
  store i32 %69, ptr %100, align 4
  %101 = add nuw nsw i32 %.027, 1
  %exitcond.not = icmp eq i32 %101, 20
  br i1 %exitcond.not, label %102, label %61, !llvm.loop !13

102:                                              ; preds = %Vec_IntPush.exit
  ret ptr %calloc
}